; ModuleID = '24/1302.c'
source_filename = "24/1302.c"
target datalayout = "e-m:e-p270:32:32-p271:32:32-p272:64:64-i64:64-f80:128-n8:16:32:64-S128"
target triple = "x86_64-pc-linux-gnu"

@.str = private unnamed_addr constant [4 x i8] c"%s\0A\00", align 1

; Function Attrs: noinline nounwind uwtable
define dso_local i32 @main() #0 {
  %1 = alloca i32, align 4
  %2 = alloca i32, align 4
  %3 = alloca i32, align 4
  %4 = alloca i32, align 4
  %5 = alloca i32, align 4
  %6 = alloca i32, align 4
  %7 = alloca i32, align 4
  %8 = alloca [50 x i32], align 16
  %9 = alloca i32, align 4
  %10 = alloca i32, align 4
  %11 = alloca [2000 x i8], align 16
  %12 = alloca [50 x [40 x i8]], align 16
  store i32 0, i32* %1, align 4
  store i32 0, i32* %4, align 4
  store i32 0, i32* %5, align 4
  store i32 0, i32* %6, align 4
  store i32 0, i32* %9, align 4
  store i32 100, i32* %10, align 4
  %13 = getelementptr inbounds [2000 x i8], [2000 x i8]* %11, i64 0, i64 0
  %14 = call i32 (i8*, ...) bitcast (i32 (...)* @gets to i32 (i8*, ...)*)(i8* %13)
  %15 = getelementptr inbounds [2000 x i8], [2000 x i8]* %11, i64 0, i64 0
  %16 = call i64 @strlen(i8* %15) #3
  %17 = trunc i64 %16 to i32
  store i32 %17, i32* %7, align 4
  store i32 0, i32* %2, align 4
  br label %18

18:                                               ; preds = %67, %0
  %19 = load i32, i32* %2, align 4
  %20 = load i32, i32* %7, align 4
  %21 = icmp slt i32 %19, %20
  br i1 %21, label %22, label %70

22:                                               ; preds = %18
  %23 = load i32, i32* %2, align 4
  %24 = sext i32 %23 to i64
  %25 = getelementptr inbounds [2000 x i8], [2000 x i8]* %11, i64 0, i64 %24
  %26 = load i8, i8* %25, align 1
  %27 = sext i8 %26 to i32
  %28 = icmp eq i32 %27, 32
  br i1 %28, label %29, label %66

29:                                               ; preds = %22
  %30 = load i32, i32* %4, align 4
  store i32 %30, i32* %3, align 4
  br label %31

31:                                               ; preds = %48, %29
  %32 = load i32, i32* %3, align 4
  %33 = load i32, i32* %2, align 4
  %34 = icmp slt i32 %32, %33
  br i1 %34, label %35, label %51

35:                                               ; preds = %31
  %36 = load i32, i32* %3, align 4
  %37 = sext i32 %36 to i64
  %38 = getelementptr inbounds [2000 x i8], [2000 x i8]* %11, i64 0, i64 %37
  %39 = load i8, i8* %38, align 1
  %40 = load i32, i32* %5, align 4
  %41 = sext i32 %40 to i64
  %42 = getelementptr inbounds [50 x [40 x i8]], [50 x [40 x i8]]* %12, i64 0, i64 %41
  %43 = load i32, i32* %6, align 4
  %44 = sext i32 %43 to i64
  %45 = getelementptr inbounds [40 x i8], [40 x i8]* %42, i64 0, i64 %44
  store i8 %39, i8* %45, align 1
  %46 = load i32, i32* %6, align 4
  %47 = add nsw i32 %46, 1
  store i32 %47, i32* %6, align 4
  br label %48

48:                                               ; preds = %35
  %49 = load i32, i32* %3, align 4
  %50 = add nsw i32 %49, 1
  store i32 %50, i32* %3, align 4
  br label %31

51:                                               ; preds = %31
  %52 = load i32, i32* %5, align 4
  %53 = sext i32 %52 to i64
  %54 = getelementptr inbounds [50 x [40 x i8]], [50 x [40 x i8]]* %12, i64 0, i64 %53
  %55 = load i32, i32* %6, align 4
  %56 = sext i32 %55 to i64
  %57 = getelementptr inbounds [40 x i8], [40 x i8]* %54, i64 0, i64 %56
  store i8 0, i8* %57, align 1
  %58 = load i32, i32* %6, align 4
  %59 = load i32, i32* %5, align 4
  %60 = sext i32 %59 to i64
  %61 = getelementptr inbounds [50 x i32], [50 x i32]* %8, i64 0, i64 %60
  store i32 %58, i32* %61, align 4
  %62 = load i32, i32* %2, align 4
  %63 = add nsw i32 %62, 1
  store i32 %63, i32* %4, align 4
  %64 = load i32, i32* %5, align 4
  %65 = add nsw i32 %64, 1
  store i32 %65, i32* %5, align 4
  store i32 0, i32* %6, align 4
  br label %66

66:                                               ; preds = %51, %22
  br label %67

67:                                               ; preds = %66
  %68 = load i32, i32* %2, align 4
  %69 = add nsw i32 %68, 1
  store i32 %69, i32* %2, align 4
  br label %18

70:                                               ; preds = %18
  %71 = load i32, i32* %4, align 4
  store i32 %71, i32* %3, align 4
  br label %72

72:                                               ; preds = %89, %70
  %73 = load i32, i32* %3, align 4
  %74 = load i32, i32* %7, align 4
  %75 = icmp slt i32 %73, %74
  br i1 %75, label %76, label %92

76:                                               ; preds = %72
  %77 = load i32, i32* %3, align 4
  %78 = sext i32 %77 to i64
  %79 = getelementptr inbounds [2000 x i8], [2000 x i8]* %11, i64 0, i64 %78
  %80 = load i8, i8* %79, align 1
  %81 = load i32, i32* %5, align 4
  %82 = sext i32 %81 to i64
  %83 = getelementptr inbounds [50 x [40 x i8]], [50 x [40 x i8]]* %12, i64 0, i64 %82
  %84 = load i32, i32* %6, align 4
  %85 = sext i32 %84 to i64
  %86 = getelementptr inbounds [40 x i8], [40 x i8]* %83, i64 0, i64 %85
  store i8 %80, i8* %86, align 1
  %87 = load i32, i32* %6, align 4
  %88 = add nsw i32 %87, 1
  store i32 %88, i32* %6, align 4
  br label %89

89:                                               ; preds = %76
  %90 = load i32, i32* %3, align 4
  %91 = add nsw i32 %90, 1
  store i32 %91, i32* %3, align 4
  br label %72

92:                                               ; preds = %72
  %93 = load i32, i32* %5, align 4
  %94 = sext i32 %93 to i64
  %95 = getelementptr inbounds [50 x [40 x i8]], [50 x [40 x i8]]* %12, i64 0, i64 %94
  %96 = load i32, i32* %6, align 4
  %97 = sext i32 %96 to i64
  %98 = getelementptr inbounds [40 x i8], [40 x i8]* %95, i64 0, i64 %97
  store i8 0, i8* %98, align 1
  %99 = load i32, i32* %6, align 4
  %100 = load i32, i32* %5, align 4
  %101 = sext i32 %100 to i64
  %102 = getelementptr inbounds [50 x i32], [50 x i32]* %8, i64 0, i64 %101
  store i32 %99, i32* %102, align 4
  store i32 0, i32* %2, align 4
  br label %103

103:                                              ; preds = %132, %92
  %104 = load i32, i32* %2, align 4
  %105 = load i32, i32* %5, align 4
  %106 = icmp sle i32 %104, %105
  br i1 %106, label %107, label %135

107:                                              ; preds = %103
  %108 = load i32, i32* %9, align 4
  %109 = load i32, i32* %2, align 4
  %110 = sext i32 %109 to i64
  %111 = getelementptr inbounds [50 x i32], [50 x i32]* %8, i64 0, i64 %110
  %112 = load i32, i32* %111, align 4
  %113 = icmp slt i32 %108, %112
  br i1 %113, label %114, label %119

114:                                              ; preds = %107
  %115 = load i32, i32* %2, align 4
  %116 = sext i32 %115 to i64
  %117 = getelementptr inbounds [50 x i32], [50 x i32]* %8, i64 0, i64 %116
  %118 = load i32, i32* %117, align 4
  store i32 %118, i32* %9, align 4
  br label %119

119:                                              ; preds = %114, %107
  %120 = load i32, i32* %10, align 4
  %121 = load i32, i32* %2, align 4
  %122 = sext i32 %121 to i64
  %123 = getelementptr inbounds [50 x i32], [50 x i32]* %8, i64 0, i64 %122
  %124 = load i32, i32* %123, align 4
  %125 = icmp sgt i32 %120, %124
  br i1 %125, label %126, label %131

126:                                              ; preds = %119
  %127 = load i32, i32* %2, align 4
  %128 = sext i32 %127 to i64
  %129 = getelementptr inbounds [50 x i32], [50 x i32]* %8, i64 0, i64 %128
  %130 = load i32, i32* %129, align 4
  store i32 %130, i32* %10, align 4
  br label %131

131:                                              ; preds = %126, %119
  br label %132

132:                                              ; preds = %131
  %133 = load i32, i32* %2, align 4
  %134 = add nsw i32 %133, 1
  store i32 %134, i32* %2, align 4
  br label %103

135:                                              ; preds = %103
  store i32 0, i32* %2, align 4
  br label %136

136:                                              ; preds = %154, %135
  %137 = load i32, i32* %2, align 4
  %138 = load i32, i32* %5, align 4
  %139 = icmp sle i32 %137, %138
  br i1 %139, label %140, label %157

140:                                              ; preds = %136
  %141 = load i32, i32* %9, align 4
  %142 = load i32, i32* %2, align 4
  %143 = sext i32 %142 to i64
  %144 = getelementptr inbounds [50 x i32], [50 x i32]* %8, i64 0, i64 %143
  %145 = load i32, i32* %144, align 4
  %146 = icmp eq i32 %141, %145
  br i1 %146, label %147, label %153

147:                                              ; preds = %140
  %148 = load i32, i32* %2, align 4
  %149 = sext i32 %148 to i64
  %150 = getelementptr inbounds [50 x [40 x i8]], [50 x [40 x i8]]* %12, i64 0, i64 %149
  %151 = getelementptr inbounds [40 x i8], [40 x i8]* %150, i64 0, i64 0
  %152 = call i32 (i8*, ...) @printf(i8* getelementptr inbounds ([4 x i8], [4 x i8]* @.str, i64 0, i64 0), i8* %151)
  br label %157

153:                                              ; preds = %140
  br label %154

154:                                              ; preds = %153
  %155 = load i32, i32* %2, align 4
  %156 = add nsw i32 %155, 1
  store i32 %156, i32* %2, align 4
  br label %136

157:                                              ; preds = %147, %136
  store i32 0, i32* %2, align 4
  br label %158

158:                                              ; preds = %176, %157
  %159 = load i32, i32* %2, align 4
  %160 = load i32, i32* %5, align 4
  %161 = icmp sle i32 %159, %160
  br i1 %161, label %162, label %179

162:                                              ; preds = %158
  %163 = load i32, i32* %10, align 4
  %164 = load i32, i32* %2, align 4
  %165 = sext i32 %164 to i64
  %166 = getelementptr inbounds [50 x i32], [50 x i32]* %8, i64 0, i64 %165
  %167 = load i32, i32* %166, align 4
  %168 = icmp eq i32 %163, %167
  br i1 %168, label %169, label %175

169:                                              ; preds = %162
  %170 = load i32, i32* %2, align 4
  %171 = sext i32 %170 to i64
  %172 = getelementptr inbounds [50 x [40 x i8]], [50 x [40 x i8]]* %12, i64 0, i64 %171
  %173 = getelementptr inbounds [40 x i8], [40 x i8]* %172, i64 0, i64 0
  %174 = call i32 (i8*, ...) @printf(i8* getelementptr inbounds ([4 x i8], [4 x i8]* @.str, i64 0, i64 0), i8* %173)
  br label %179

175:                                              ; preds = %162
  br label %176

176:                                              ; preds = %175
  %177 = load i32, i32* %2, align 4
  %178 = add nsw i32 %177, 1
  store i32 %178, i32* %2, align 4
  br label %158

179:                                              ; preds = %169, %158
  ret i32 0
}

declare dso_local i32 @gets(...) #1

; Function Attrs: nounwind readonly
declare dso_local i64 @strlen(i8*) #2

declare dso_local i32 @printf(i8*, ...) #1


!llvm.module.flags = !{!0}
!llvm.ident = !{!1}

!0 = !{i32 1, !"wchar_size", i32 4}
!1 = !{!"clang version 10.0.0-4ubuntu1 "}
